target datalayout = "e-m:e-p270:32:32-p271:32:32-p272:64:64-i64:64-i128:128-f80:128-n8:16:32:64-S128"
target triple = "x86_64-pc-linux-gnu"

%struct.CameraBootStrap = type { ptr, ptr, ptr, i8 }

@bootstrap = internal constant [3 x ptr] [ptr @V4L2_bootstrap, ptr @DUMMYCAMERA_bootstrap, ptr null], align 16
@.str = private unnamed_addr constant [26 x i8] c"Parameter '%s' is invalid\00", align 1
@.str.1 = private unnamed_addr constant [6 x i8] c"index\00", align 1

; Function Attrs: nounwind uwtable
define hidden i32 @SDL_GetNumCameraDrivers_REAL() #0 {
  ret i32 2
}

; Function Attrs: nounwind uwtable
define hidden ptr @SDL_GetCameraDriver_REAL(i32 noundef %0) #0 {
  %2 = alloca ptr, align 8
  %3 = alloca i32, align 4
  store i32 %0, ptr %3, align 4
  %4 = load i32, ptr %3, align 4
  %5 = icmp sge i32 %4, 0
  br i1 %5, label %6, label %17

6:                                                ; preds = %1
  %7 = load i32, ptr %3, align 4
  %8 = call i32 @SDL_GetNumCameraDrivers_REAL()
  %9 = icmp slt i32 %7, %8
  br i1 %9, label %10, label %17

10:                                               ; preds = %6
  %11 = load i32, ptr %3, align 4
  %12 = sext i32 %11 to i64
  %13 = getelementptr inbounds [3 x ptr], ptr @bootstrap, i64 0, i64 %12
  %14 = load ptr, ptr %13, align 8
  %15 = getelementptr inbounds nuw %struct.CameraBootStrap, ptr %14, i32 0, i32 0
  %16 = load ptr, ptr %15, align 8
  store ptr %16, ptr %2, align 8
  br label %19

17:                                               ; preds = %6, %1
  %18 = call zeroext i1 (ptr, ...) @SDL_SetError_REAL(ptr noundef @.str, ptr noundef @.str.1)
  store ptr null, ptr %2, align 8
  br label %19

19:                                               ; preds = %17, %10
  %20 = load ptr, ptr %2, align 8
  ret ptr %20
}