; Function Attrs: nounwind uwtable
define hidden ptr @SDL_GetCameraDriver_REAL(i32 noundef %0) local_unnamed_addr #1 {
  %or.cond = icmp ult i32 %0, 2
  br i1 %or.cond, label %2, label %7

2:                                                ; preds = %1
  %3 = zext nneg i32 %0 to i64
  %4 = getelementptr inbounds nuw [3 x ptr], ptr @bootstrap, i64 0, i64 %3
  %5 = load ptr, ptr %4, align 8
  %6 = load ptr, ptr %5, align 8
  br label %9

7:                                                ; preds = %1
  %8 = tail call zeroext i1 (ptr, ...) @SDL_SetError_REAL(ptr noundef nonnull @.str, ptr noundef nonnull @.str.1) #11
  br label %9

9:                                                ; preds = %7, %2
  %.0 = phi ptr [ %6, %2 ], [ null, %7 ]
  ret ptr %.0
}